; Function Attrs: mustprogress nofree norecurse nosync nounwind willreturn memory(argmem: write) uwtable
define void @lv_vector_dsc_set_stroke_linear_gradient(ptr nocapture noundef writeonly %0, float noundef %1, float noundef %2, float noundef %3, float noundef %4) local_unnamed_addr #7 {
  %6 = getelementptr inbounds nuw i8, ptr %0, i64 256
  store i32 2, ptr %6, align 8, !tbaa !74
  %7 = getelementptr inbounds nuw i8, ptr %0, i64 308
  store i32 0, ptr %7, align 4, !tbaa !81
  %8 = getelementptr inbounds nuw i8, ptr %0, i64 324
  store float %1, ptr %8, align 4, !tbaa !82
  %9 = getelementptr inbounds nuw i8, ptr %0, i64 328
  store float %2, ptr %9, align 4, !tbaa !83
  %10 = getelementptr inbounds nuw i8, ptr %0, i64 332
  store float %3, ptr %10, align 4, !tbaa !84
  %11 = getelementptr inbounds nuw i8, ptr %0, i64 336
  store float %4, ptr %11, align 4, !tbaa !85
  ret void
}